target datalayout = "e-m:e-p270:32:32-p271:32:32-p272:64:64-i64:64-i128:128-f80:128-n8:16:32:64-S128"
target triple = "x86_64-pc-linux-gnu"

%struct.MD4state_st = type { i32, i32, i32, i32, i32, i32, [16 x i32], i32 }

; Function Attrs: nounwind uwtable
define i32 @MD4_Update(ptr noundef %0, ptr noundef %1, i64 noundef %2) #0 {
  %4 = alloca i32, align 4
  %5 = alloca ptr, align 8
  %6 = alloca ptr, align 8
  %7 = alloca i64, align 8
  %8 = alloca ptr, align 8
  %9 = alloca ptr, align 8
  %10 = alloca i32, align 4
  %11 = alloca i64, align 8
  %12 = alloca i32, align 4
  store ptr %0, ptr %5, align 8, !tbaa !3
  store ptr %1, ptr %6, align 8, !tbaa !8
  store i64 %2, ptr %7, align 8, !tbaa !9
  call void @llvm.lifetime.start.p0(i64 8, ptr %8) #5
  %13 = load ptr, ptr %6, align 8, !tbaa !8
  store ptr %13, ptr %8, align 8, !tbaa !11
  call void @llvm.lifetime.start.p0(i64 8, ptr %9) #5
  call void @llvm.lifetime.start.p0(i64 4, ptr %10) #5
  call void @llvm.lifetime.start.p0(i64 8, ptr %11) #5
  %14 = load i64, ptr %7, align 8, !tbaa !9
  %15 = icmp eq i64 %14, 0
  br i1 %15, label %16, label %17

16:                                               ; preds = %3
  store i32 1, ptr %4, align 4
  store i32 1, ptr %12, align 4
  br label %131

17:                                               ; preds = %3
  %18 = load ptr, ptr %5, align 8, !tbaa !3
  %19 = getelementptr inbounds nuw %struct.MD4state_st, ptr %18, i32 0, i32 4
  %20 = load i32, ptr %19, align 4, !tbaa !13
  %21 = load i64, ptr %7, align 8, !tbaa !9
  %22 = trunc i64 %21 to i32
  %23 = shl i32 %22, 3
  %24 = add i32 %20, %23
  %25 = zext i32 %24 to i64
  %26 = and i64 %25, 4294967295
  %27 = trunc i64 %26 to i32
  store i32 %27, ptr %10, align 4, !tbaa !16
  %28 = load i32, ptr %10, align 4, !tbaa !16
  %29 = load ptr, ptr %5, align 8, !tbaa !3
  %30 = getelementptr inbounds nuw %struct.MD4state_st, ptr %29, i32 0, i32 4
  %31 = load i32, ptr %30, align 4, !tbaa !13
  %32 = icmp ult i32 %28, %31
  br i1 %32, label %33, label %38

33:                                               ; preds = %17
  %34 = load ptr, ptr %5, align 8, !tbaa !3
  %35 = getelementptr inbounds nuw %struct.MD4state_st, ptr %34, i32 0, i32 5
  %36 = load i32, ptr %35, align 4, !tbaa !17
  %37 = add i32 %36, 1
  store i32 %37, ptr %35, align 4, !tbaa !17
  br label %38

38:                                               ; preds = %33, %17
  %39 = load i64, ptr %7, align 8, !tbaa !9
  %40 = lshr i64 %39, 29
  %41 = trunc i64 %40 to i32
  %42 = load ptr, ptr %5, align 8, !tbaa !3
  %43 = getelementptr inbounds nuw %struct.MD4state_st, ptr %42, i32 0, i32 5
  %44 = load i32, ptr %43, align 4, !tbaa !17
  %45 = add i32 %44, %41
  store i32 %45, ptr %43, align 4, !tbaa !17
  %46 = load i32, ptr %10, align 4, !tbaa !16
  %47 = load ptr, ptr %5, align 8, !tbaa !3
  %48 = getelementptr inbounds nuw %struct.MD4state_st, ptr %47, i32 0, i32 4
  store i32 %46, ptr %48, align 4, !tbaa !13
  %49 = load ptr, ptr %5, align 8, !tbaa !3
  %50 = getelementptr inbounds nuw %struct.MD4state_st, ptr %49, i32 0, i32 7
  %51 = load i32, ptr %50, align 4, !tbaa !18
  %52 = zext i32 %51 to i64
  store i64 %52, ptr %11, align 8, !tbaa !9
  %53 = load i64, ptr %11, align 8, !tbaa !9
  %54 = icmp ne i64 %53, 0
  br i1 %54, label %55, label %99

55:                                               ; preds = %38
  %56 = load ptr, ptr %5, align 8, !tbaa !3
  %57 = getelementptr inbounds nuw %struct.MD4state_st, ptr %56, i32 0, i32 6
  %58 = getelementptr inbounds [16 x i32], ptr %57, i64 0, i64 0
  store ptr %58, ptr %9, align 8, !tbaa !11
  %59 = load i64, ptr %7, align 8, !tbaa !9
  %60 = icmp uge i64 %59, 64
  br i1 %60, label %66, label %61

61:                                               ; preds = %55
  %62 = load i64, ptr %7, align 8, !tbaa !9
  %63 = load i64, ptr %11, align 8, !tbaa !9
  %64 = add i64 %62, %63
  %65 = icmp uge i64 %64, 64
  br i1 %65, label %66, label %86

66:                                               ; preds = %61, %55
  %67 = load ptr, ptr %9, align 8, !tbaa !11
  %68 = load i64, ptr %11, align 8, !tbaa !9
  %69 = getelementptr inbounds nuw i8, ptr %67, i64 %68
  %70 = load ptr, ptr %8, align 8, !tbaa !11
  %71 = load i64, ptr %11, align 8, !tbaa !9
  %72 = sub i64 64, %71
  call void @llvm.memcpy.p0.p0.i64(ptr align 1 %69, ptr align 1 %70, i64 %72, i1 false)
  %73 = load ptr, ptr %5, align 8, !tbaa !3
  %74 = load ptr, ptr %9, align 8, !tbaa !11
  call void @md4_block_data_order(ptr noundef %73, ptr noundef %74, i64 noundef 1)
  %75 = load i64, ptr %11, align 8, !tbaa !9
  %76 = sub i64 64, %75
  store i64 %76, ptr %11, align 8, !tbaa !9
  %77 = load i64, ptr %11, align 8, !tbaa !9
  %78 = load ptr, ptr %8, align 8, !tbaa !11
  %79 = getelementptr inbounds nuw i8, ptr %78, i64 %77
  store ptr %79, ptr %8, align 8, !tbaa !11
  %80 = load i64, ptr %11, align 8, !tbaa !9
  %81 = load i64, ptr %7, align 8, !tbaa !9
  %82 = sub i64 %81, %80
  store i64 %82, ptr %7, align 8, !tbaa !9
  %83 = load ptr, ptr %5, align 8, !tbaa !3
  %84 = getelementptr inbounds nuw %struct.MD4state_st, ptr %83, i32 0, i32 7
  store i32 0, ptr %84, align 4, !tbaa !18
  %85 = load ptr, ptr %9, align 8, !tbaa !11
  call void @llvm.memset.p0.i64(ptr align 1 %85, i8 0, i64 64, i1 false)
  br label %98

86:                                               ; preds = %61
  %87 = load ptr, ptr %9, align 8, !tbaa !11
  %88 = load i64, ptr %11, align 8, !tbaa !9
  %89 = getelementptr inbounds nuw i8, ptr %87, i64 %88
  %90 = load ptr, ptr %8, align 8, !tbaa !11
  %91 = load i64, ptr %7, align 8, !tbaa !9
  call void @llvm.memcpy.p0.p0.i64(ptr align 1 %89, ptr align 1 %90, i64 %91, i1 false)
  %92 = load i64, ptr %7, align 8, !tbaa !9
  %93 = trunc i64 %92 to i32
  %94 = load ptr, ptr %5, align 8, !tbaa !3
  %95 = getelementptr inbounds nuw %struct.MD4state_st, ptr %94, i32 0, i32 7
  %96 = load i32, ptr %95, align 4, !tbaa !18
  %97 = add i32 %96, %93
  store i32 %97, ptr %95, align 4, !tbaa !18
  store i32 1, ptr %4, align 4
  store i32 1, ptr %12, align 4
  br label %131

98:                                               ; preds = %66
  br label %99

99:                                               ; preds = %98, %38
  %100 = load i64, ptr %7, align 8, !tbaa !9
  %101 = udiv i64 %100, 64
  store i64 %101, ptr %11, align 8, !tbaa !9
  %102 = load i64, ptr %11, align 8, !tbaa !9
  %103 = icmp ugt i64 %102, 0
  br i1 %103, label %104, label %116

104:                                              ; preds = %99
  %105 = load ptr, ptr %5, align 8, !tbaa !3
  %106 = load ptr, ptr %8, align 8, !tbaa !11
  %107 = load i64, ptr %11, align 8, !tbaa !9
  call void @md4_block_data_order(ptr noundef %105, ptr noundef %106, i64 noundef %107)
  %108 = load i64, ptr %11, align 8, !tbaa !9
  %109 = mul i64 %108, 64
  store i64 %109, ptr %11, align 8, !tbaa !9
  %110 = load i64, ptr %11, align 8, !tbaa !9
  %111 = load ptr, ptr %8, align 8, !tbaa !11
  %112 = getelementptr inbounds nuw i8, ptr %111, i64 %110
  store ptr %112, ptr %8, align 8, !tbaa !11
  %113 = load i64, ptr %11, align 8, !tbaa !9
  %114 = load i64, ptr %7, align 8, !tbaa !9
  %115 = sub i64 %114, %113
  store i64 %115, ptr %7, align 8, !tbaa !9
  br label %116

116:                                              ; preds = %104, %99
  %117 = load i64, ptr %7, align 8, !tbaa !9
  %118 = icmp ne i64 %117, 0
  br i1 %118, label %119, label %130

119:                                              ; preds = %116
  %120 = load ptr, ptr %5, align 8, !tbaa !3
  %121 = getelementptr inbounds nuw %struct.MD4state_st, ptr %120, i32 0, i32 6
  %122 = getelementptr inbounds [16 x i32], ptr %121, i64 0, i64 0
  store ptr %122, ptr %9, align 8, !tbaa !11
  %123 = load i64, ptr %7, align 8, !tbaa !9
  %124 = trunc i64 %123 to i32
  %125 = load ptr, ptr %5, align 8, !tbaa !3
  %126 = getelementptr inbounds nuw %struct.MD4state_st, ptr %125, i32 0, i32 7
  store i32 %124, ptr %126, align 4, !tbaa !18
  %127 = load ptr, ptr %9, align 8, !tbaa !11
  %128 = load ptr, ptr %8, align 8, !tbaa !11
  %129 = load i64, ptr %7, align 8, !tbaa !9
  call void @llvm.memcpy.p0.p0.i64(ptr align 1 %127, ptr align 1 %128, i64 %129, i1 false)
  br label %130

130:                                              ; preds = %119, %116
  store i32 1, ptr %4, align 4
  store i32 1, ptr %12, align 4
  br label %131

131:                                              ; preds = %130, %86, %16
  call void @llvm.lifetime.end.p0(i64 8, ptr %11) #5
  call void @llvm.lifetime.end.p0(i64 4, ptr %10) #5
  call void @llvm.lifetime.end.p0(i64 8, ptr %9) #5
  call void @llvm.lifetime.end.p0(i64 8, ptr %8) #5
  %132 = load i32, ptr %4, align 4
  ret i32 %132
}